; ModuleID = '11/97.c'
source_filename = "11/97.c"
target datalayout = "e-m:e-p270:32:32-p271:32:32-p272:64:64-i64:64-f80:128-n8:16:32:64-S128"
target triple = "x86_64-pc-linux-gnu"

@.str = private unnamed_addr constant [9 x i8] c"%d %d %d\00", align 1
@__const.main.N1 = private unnamed_addr constant [13 x i32] [i32 0, i32 31, i32 28, i32 31, i32 30, i32 31, i32 30, i32 31, i32 31, i32 30, i32 31, i32 30, i32 31], align 16
@__const.main.N2 = private unnamed_addr constant [13 x i32] [i32 0, i32 31, i32 29, i32 31, i32 30, i32 31, i32 30, i32 31, i32 31, i32 30, i32 31, i32 30, i32 31], align 16
@.str.1 = private unnamed_addr constant [7 x i8] c"wrong\0A\00", align 1
@.str.2 = private unnamed_addr constant [4 x i8] c"%d\0A\00", align 1

; Function Attrs: noinline nounwind uwtable
define dso_local i32 @main() #0 {
  %1 = alloca i32, align 4
  %2 = alloca i32, align 4
  %3 = alloca i32, align 4
  %4 = alloca i32, align 4
  %5 = alloca i32, align 4
  %6 = alloca i32, align 4
  %7 = alloca i32, align 4
  %8 = alloca [13 x i32], align 16
  %9 = alloca [13 x i32], align 16
  store i32 0, i32* %1, align 4
  store i32 0, i32* %6, align 4
  store i32 0, i32* %7, align 4
  %10 = call i32 (i8*, ...) @__isoc99_scanf(i8* getelementptr inbounds ([9 x i8], [9 x i8]* @.str, i64 0, i64 0), i32* %2, i32* %3, i32* %4)
  %11 = bitcast [13 x i32]* %8 to i8*
  call void @llvm.memcpy.p0i8.p0i8.i64(i8* align 16 %11, i8* align 16 bitcast ([13 x i32]* @__const.main.N1 to i8*), i64 52, i1 false)
  %12 = bitcast [13 x i32]* %9 to i8*
  call void @llvm.memcpy.p0i8.p0i8.i64(i8* align 16 %12, i8* align 16 bitcast ([13 x i32]* @__const.main.N2 to i8*), i64 52, i1 false)
  %13 = load i32, i32* %2, align 4
  %14 = srem i32 %13, 4
  %15 = icmp eq i32 %14, 0
  br i1 %15, label %16, label %20

16:                                               ; preds = %0
  %17 = load i32, i32* %2, align 4
  %18 = srem i32 %17, 100
  %19 = icmp ne i32 %18, 0
  br i1 %19, label %24, label %20

20:                                               ; preds = %16, %0
  %21 = load i32, i32* %2, align 4
  %22 = srem i32 %21, 400
  %23 = icmp eq i32 %22, 0
  br i1 %23, label %24, label %56

24:                                               ; preds = %20, %16
  %25 = load i32, i32* %4, align 4
  %26 = icmp slt i32 %25, 1
  br i1 %26, label %34, label %27

27:                                               ; preds = %24
  %28 = load i32, i32* %4, align 4
  %29 = load i32, i32* %3, align 4
  %30 = sext i32 %29 to i64
  %31 = getelementptr inbounds [13 x i32], [13 x i32]* %9, i64 0, i64 %30
  %32 = load i32, i32* %31, align 4
  %33 = icmp sgt i32 %28, %32
  br i1 %33, label %34, label %36

34:                                               ; preds = %27, %24
  %35 = call i32 (i8*, ...) @printf(i8* getelementptr inbounds ([7 x i8], [7 x i8]* @.str.1, i64 0, i64 0))
  store i32 -1, i32* %1, align 4
  br label %91

36:                                               ; preds = %27
  store i32 1, i32* %5, align 4
  br label %37

37:                                               ; preds = %48, %36
  %38 = load i32, i32* %5, align 4
  %39 = load i32, i32* %3, align 4
  %40 = icmp sle i32 %38, %39
  br i1 %40, label %41, label %51

41:                                               ; preds = %37
  %42 = load i32, i32* %5, align 4
  %43 = sext i32 %42 to i64
  %44 = getelementptr inbounds [13 x i32], [13 x i32]* %9, i64 0, i64 %43
  %45 = load i32, i32* %44, align 4
  %46 = load i32, i32* %6, align 4
  %47 = add nsw i32 %46, %45
  store i32 %47, i32* %6, align 4
  br label %48

48:                                               ; preds = %41
  %49 = load i32, i32* %5, align 4
  %50 = add nsw i32 %49, 1
  store i32 %50, i32* %5, align 4
  br label %37

51:                                               ; preds = %37
  %52 = load i32, i32* %6, align 4
  %53 = load i32, i32* %4, align 4
  %54 = sub nsw i32 %52, %53
  store i32 %54, i32* %7, align 4
  br label %55

55:                                               ; preds = %51
  br label %88

56:                                               ; preds = %20
  %57 = load i32, i32* %4, align 4
  %58 = icmp slt i32 %57, 1
  br i1 %58, label %66, label %59

59:                                               ; preds = %56
  %60 = load i32, i32* %4, align 4
  %61 = load i32, i32* %3, align 4
  %62 = sext i32 %61 to i64
  %63 = getelementptr inbounds [13 x i32], [13 x i32]* %8, i64 0, i64 %62
  %64 = load i32, i32* %63, align 4
  %65 = icmp sgt i32 %60, %64
  br i1 %65, label %66, label %68

66:                                               ; preds = %59, %56
  %67 = call i32 (i8*, ...) @printf(i8* getelementptr inbounds ([7 x i8], [7 x i8]* @.str.1, i64 0, i64 0))
  store i32 -1, i32* %1, align 4
  br label %91

68:                                               ; preds = %59
  store i32 1, i32* %5, align 4
  br label %69

69:                                               ; preds = %80, %68
  %70 = load i32, i32* %5, align 4
  %71 = load i32, i32* %3, align 4
  %72 = icmp sle i32 %70, %71
  br i1 %72, label %73, label %83

73:                                               ; preds = %69
  %74 = load i32, i32* %5, align 4
  %75 = sext i32 %74 to i64
  %76 = getelementptr inbounds [13 x i32], [13 x i32]* %8, i64 0, i64 %75
  %77 = load i32, i32* %76, align 4
  %78 = load i32, i32* %6, align 4
  %79 = add nsw i32 %78, %77
  store i32 %79, i32* %6, align 4
  br label %80

80:                                               ; preds = %73
  %81 = load i32, i32* %5, align 4
  %82 = add nsw i32 %81, 1
  store i32 %82, i32* %5, align 4
  br label %69

83:                                               ; preds = %69
  %84 = load i32, i32* %6, align 4
  %85 = load i32, i32* %4, align 4
  %86 = sub nsw i32 %84, %85
  store i32 %86, i32* %7, align 4
  br label %87

87:                                               ; preds = %83
  br label %88

88:                                               ; preds = %87, %55
  %89 = load i32, i32* %7, align 4
  %90 = call i32 (i8*, ...) @printf(i8* getelementptr inbounds ([4 x i8], [4 x i8]* @.str.2, i64 0, i64 0), i32 %89)
  store i32 0, i32* %1, align 4
  br label %91

91:                                               ; preds = %88, %66, %34
  %92 = load i32, i32* %1, align 4
  ret i32 %92
}

declare dso_local i32 @__isoc99_scanf(i8*, ...) #1

; Function Attrs: argmemonly nounwind willreturn
declare void @llvm.memcpy.p0i8.p0i8.i64(i8* noalias nocapture writeonly, i8* noalias nocapture readonly, i64, i1 immarg) #2

declare dso_local i32 @printf(i8*, ...) #1


!llvm.module.flags = !{!0}
!llvm.ident = !{!1}

!0 = !{i32 1, !"wchar_size", i32 4}
!1 = !{!"clang version 10.0.0-4ubuntu1 "}
